; Function Attrs: mustprogress uwtable
define internal void @"_ZN4LuauL8fnVisitVIZL20DOCTEST_ANON_FUNC_13vE3$_1KNSt7__cxx1112basic_stringIcSt11char_traitsIcESaIcEEEEEvRT_PNSt11conditionalIXsr3stdE10is_const_vIT0_EEKvvE4typeE"(ptr nocapture noundef nonnull readonly align 8 dereferenceable(8) %0, ptr noundef nonnull %1) #2 personality ptr @__gxx_personality_v0 {
  %3 = alloca %"class.std::__cxx11::basic_string", align 8
  call void @llvm.lifetime.start.p0(i64 32, ptr nonnull %3)
  call void @_ZNSt7__cxx1112basic_stringIcSt11char_traitsIcESaIcEEC1ERKS4_(ptr noundef nonnull align 8 dereferenceable(32) %3, ptr noundef nonnull align 8 dereferenceable(32) %1)
  %4 = load ptr, ptr %0, align 8
  %5 = invoke noundef nonnull align 8 dereferenceable(32) ptr @_ZNSt7__cxx1112basic_stringIcSt11char_traitsIcESaIcEEpLERKS4_(ptr noundef nonnull align 8 dereferenceable(32) %4, ptr noundef nonnull align 8 dereferenceable(32) %3)
          to label %"_ZZL20DOCTEST_ANON_FUNC_13vENK3$_1clINSt7__cxx1112basic_stringIcSt11char_traitsIcESaIcEEEEEDaRKT_.exit" unwind label %6

6:                                                ; preds = %2
  %7 = landingpad { ptr, i32 }
          cleanup
  call void @_ZNSt7__cxx1112basic_stringIcSt11char_traitsIcESaIcEED1Ev(ptr noundef nonnull align 8 dereferenceable(32) %3) #13
  resume { ptr, i32 } %7

"_ZZL20DOCTEST_ANON_FUNC_13vENK3$_1clINSt7__cxx1112basic_stringIcSt11char_traitsIcESaIcEEEEEDaRKT_.exit": ; preds = %2
  call void @_ZNSt7__cxx1112basic_stringIcSt11char_traitsIcESaIcEED1Ev(ptr noundef nonnull align 8 dereferenceable(32) %3) #13
  call void @llvm.lifetime.end.p0(i64 32, ptr nonnull %3)
  ret void
}